; Function Attrs: mustprogress uwtable
define hidden void @_ZN4cvc58internal6theory5arith8PolyNorm6mkDiffENS0_12NodeTemplateILb0EEES5_(ptr dead_on_unwind noalias writable sret(%"class.cvc5::internal::theory::arith::PolyNorm") align 8 %0, ptr noundef readonly captures(none) %1, ptr noundef readonly captures(none) %2) local_unnamed_addr #3 align 2 personality ptr @__gxx_personality_v0 {
  %4 = alloca %"class.cvc5::internal::NodeTemplate", align 8
  %5 = alloca %"class.cvc5::internal::NodeTemplate", align 8
  %6 = alloca %"class.cvc5::internal::theory::arith::PolyNorm", align 8
  %7 = alloca %"class.cvc5::internal::NodeTemplate", align 8
  %8 = load ptr, ptr %1, align 8, !tbaa !11
  store ptr %8, ptr %5, align 8, !tbaa !11
  call void @_ZN4cvc58internal6theory5arith8PolyNorm10mkPolyNormENS0_12NodeTemplateILb0EEE(ptr dead_on_unwind writable sret(%"class.cvc5::internal::theory::arith::PolyNorm") align 8 %0, ptr noundef nonnull %5)
  call void @llvm.lifetime.start.p0(i64 48, ptr nonnull %6) #26
  %9 = load ptr, ptr %2, align 8, !tbaa !11
  store ptr %9, ptr %7, align 8, !tbaa !11
  invoke void @_ZN4cvc58internal6theory5arith8PolyNorm10mkPolyNormENS0_12NodeTemplateILb0EEE(ptr dead_on_unwind nonnull writable sret(%"class.cvc5::internal::theory::arith::PolyNorm") align 8 %6, ptr noundef nonnull %7)
          to label %10 unwind label %23

10:                                               ; preds = %3
  call void @llvm.lifetime.start.p0(i64 8, ptr nonnull %4)
  %11 = getelementptr inbounds nuw i8, ptr %6, i64 24
  %12 = load ptr, ptr %11, align 8, !tbaa !37
  %13 = getelementptr inbounds nuw i8, ptr %6, i64 8
  %.not10.i = icmp eq ptr %12, %13
  br i1 %.not10.i, label %.loopexit, label %.lr.ph.i

.lr.ph.i:                                         ; preds = %10, %.noexc
  %.sroa.07.011.i = phi ptr [ %17, %.noexc ], [ %12, %10 ]
  %14 = getelementptr inbounds nuw i8, ptr %.sroa.07.011.i, i64 32
  %15 = load ptr, ptr %14, align 8, !tbaa !22
  store ptr %15, ptr %4, align 8, !tbaa !11
  %16 = getelementptr inbounds nuw i8, ptr %.sroa.07.011.i, i64 40
  invoke void @_ZN4cvc58internal6theory5arith8PolyNorm11addMonomialENS0_12NodeTemplateILb0EEERKNS0_8RationalEb(ptr noundef nonnull align 8 dereferenceable(48) %0, ptr noundef nonnull %4, ptr noundef nonnull align 8 dereferenceable(32) %16, i1 noundef zeroext true)
          to label %.noexc unwind label %25

.noexc:                                           ; preds = %.lr.ph.i
  %17 = call noundef ptr @_ZSt18_Rb_tree_incrementPKSt18_Rb_tree_node_base(ptr noundef nonnull %.sroa.07.011.i) #28
  %.not.i = icmp eq ptr %17, %13
  br i1 %.not.i, label %.loopexit, label %.lr.ph.i

.loopexit:                                        ; preds = %.noexc, %10
  call void @llvm.lifetime.end.p0(i64 8, ptr nonnull %4)
  %18 = getelementptr inbounds nuw i8, ptr %6, i64 16
  %19 = load ptr, ptr %18, align 8, !tbaa !16
  invoke void @_ZNSt8_Rb_treeIN4cvc58internal12NodeTemplateILb1EEESt4pairIKS3_NS1_8RationalEESt10_Select1stIS7_ESt4lessIS3_ESaIS7_EE8_M_eraseEPSt13_Rb_tree_nodeIS7_E(ptr noundef nonnull align 8 dereferenceable(48) %6, ptr noundef %19)
          to label %_ZN4cvc58internal6theory5arith8PolyNormD2Ev.exit unwind label %20

20:                                               ; preds = %.loopexit
  %21 = landingpad { ptr, i32 }
          catch ptr null
  %22 = extractvalue { ptr, i32 } %21, 0
  call void @__clang_call_terminate(ptr %22) #25
  unreachable

_ZN4cvc58internal6theory5arith8PolyNormD2Ev.exit: ; preds = %.loopexit
  call void @llvm.lifetime.end.p0(i64 48, ptr nonnull %6) #26
  ret void

23:                                               ; preds = %3
  %24 = landingpad { ptr, i32 }
          cleanup
  br label %27

25:                                               ; preds = %.lr.ph.i
  %26 = landingpad { ptr, i32 }
          cleanup
  call void @_ZN4cvc58internal6theory5arith8PolyNormD2Ev(ptr noundef nonnull align 8 dereferenceable(48) %6) #26
  br label %27

27:                                               ; preds = %25, %23
  %.pn = phi { ptr, i32 } [ %26, %25 ], [ %24, %23 ]
  call void @llvm.lifetime.end.p0(i64 48, ptr nonnull %6) #26
  call void @_ZN4cvc58internal6theory5arith8PolyNormD2Ev(ptr noundef nonnull align 8 dereferenceable(48) %0) #26
  resume { ptr, i32 } %.pn
}